; Function Attrs: nounwind uwtable
define noundef i32 @evbuffer_cb_clear_flags(ptr noundef readonly captures(none) %0, ptr noundef captures(none) %1, i32 noundef %2) local_unnamed_addr #1 {
  %4 = and i32 %2, 65535
  %5 = getelementptr inbounds nuw i8, ptr %0, i64 56
  %6 = load ptr, ptr %5, align 8
  %.not = icmp eq ptr %6, null
  br i1 %.not, label %10, label %7

7:                                                ; preds = %3
  %8 = load ptr, ptr getelementptr inbounds nuw (i8, ptr @evthread_lock_fns_, i64 24), align 8
  %9 = tail call i32 %8(i32 noundef 0, ptr noundef nonnull %6) #16
  br label %10

10:                                               ; preds = %7, %3
  %11 = xor i32 %4, -1
  %12 = getelementptr inbounds nuw i8, ptr %1, i64 32
  %13 = load i32, ptr %12, align 8
  %14 = and i32 %13, %11
  store i32 %14, ptr %12, align 8
  %15 = load ptr, ptr %5, align 8
  %.not7 = icmp eq ptr %15, null
  br i1 %.not7, label %19, label %16

16:                                               ; preds = %10
  %17 = load ptr, ptr getelementptr inbounds nuw (i8, ptr @evthread_lock_fns_, i64 32), align 8
  %18 = tail call i32 %17(i32 noundef 0, ptr noundef nonnull %15) #16
  br label %19

19:                                               ; preds = %16, %10
  ret i32 0
}